target datalayout = "e-m:e-p270:32:32-p271:32:32-p272:64:64-i64:64-i128:128-f80:128-n8:16:32:64-S128"
target triple = "x86_64-pc-linux-gnu"

%struct.PRNGState = type { [4 x i64] }
%struct.lua_State = type { %struct.GCRef, i8, i8, i8, i8, %struct.MRef, %struct.GCRef, ptr, ptr, %struct.MRef, %struct.MRef, %struct.GCRef, %struct.GCRef, ptr, i32 }
%struct.MRef = type { i64 }
%struct.GCRef = type { i64 }
%union.TValue = type { i64 }
%union.U64double = type { i64 }
%struct.GCfuncC = type { %struct.GCRef, i8, i8, i8, i8, %struct.GCRef, %struct.GCRef, %struct.MRef, ptr, [1 x %union.TValue] }
%struct.GCudata = type { %struct.GCRef, i8, i8, i8, i8, %struct.GCRef, i32, %struct.GCRef, i32 }

; Function Attrs: nounwind uwtable
define internal void @random_seed(ptr noundef %0, double noundef %1) #0 {
  %3 = alloca ptr, align 8
  %4 = alloca double, align 8
  %5 = alloca i32, align 4
  %6 = alloca i32, align 4
  %7 = alloca %union.U64double, align 8
  %8 = alloca i32, align 4
  store ptr %0, ptr %3, align 8, !tbaa !9
  store double %1, ptr %4, align 8, !tbaa !13
  call void @llvm.lifetime.start.p0(i64 4, ptr %5) #7
  store i32 285804033, ptr %5, align 4, !tbaa !22
  call void @llvm.lifetime.start.p0(i64 4, ptr %6) #7
  store i32 0, ptr %6, align 4, !tbaa !22
  br label %9

9:                                                ; preds = %36, %2
  %10 = load i32, ptr %6, align 4, !tbaa !22
  %11 = icmp slt i32 %10, 4
  br i1 %11, label %12, label %39

12:                                               ; preds = %9
  call void @llvm.lifetime.start.p0(i64 8, ptr %7) #7
  call void @llvm.lifetime.start.p0(i64 4, ptr %8) #7
  %13 = load i32, ptr %5, align 4, !tbaa !22
  %14 = and i32 %13, 255
  %15 = shl i32 1, %14
  store i32 %15, ptr %8, align 4, !tbaa !22
  %16 = load i32, ptr %5, align 4, !tbaa !22
  %17 = lshr i32 %16, 8
  store i32 %17, ptr %5, align 4, !tbaa !22
  %18 = load double, ptr %4, align 8, !tbaa !13
  %19 = call double @llvm.fmuladd.f64(double %18, double 0x400921FB54442D18, double 0x4005BF0A8B145769)
  store double %19, ptr %4, align 8, !tbaa !13
  store double %19, ptr %7, align 8, !tbaa !23
  %20 = load i64, ptr %7, align 8, !tbaa !23
  %21 = load i32, ptr %8, align 4, !tbaa !22
  %22 = zext i32 %21 to i64
  %23 = icmp ult i64 %20, %22
  br i1 %23, label %24, label %29

24:                                               ; preds = %12
  %25 = load i32, ptr %8, align 4, !tbaa !22
  %26 = zext i32 %25 to i64
  %27 = load i64, ptr %7, align 8, !tbaa !23
  %28 = add i64 %27, %26
  store i64 %28, ptr %7, align 8, !tbaa !23
  br label %29

29:                                               ; preds = %24, %12
  %30 = load i64, ptr %7, align 8, !tbaa !23
  %31 = load ptr, ptr %3, align 8, !tbaa !9
  %32 = getelementptr inbounds nuw %struct.PRNGState, ptr %31, i32 0, i32 0
  %33 = load i32, ptr %6, align 4, !tbaa !22
  %34 = sext i32 %33 to i64
  %35 = getelementptr inbounds [4 x i64], ptr %32, i64 0, i64 %34
  store i64 %30, ptr %35, align 8, !tbaa !11
  call void @llvm.lifetime.end.p0(i64 4, ptr %8) #7
  call void @llvm.lifetime.end.p0(i64 8, ptr %7) #7
  br label %36

36:                                               ; preds = %29
  %37 = load i32, ptr %6, align 4, !tbaa !22
  %38 = add nsw i32 %37, 1
  store i32 %38, ptr %6, align 4, !tbaa !22
  br label %9, !llvm.loop !26

39:                                               ; preds = %9
  store i32 0, ptr %6, align 4, !tbaa !22
  br label %40

40:                                               ; preds = %46, %39
  %41 = load i32, ptr %6, align 4, !tbaa !22
  %42 = icmp slt i32 %41, 10
  br i1 %42, label %43, label %49

43:                                               ; preds = %40
  %44 = load ptr, ptr %3, align 8, !tbaa !9
  %45 = call i64 @lj_prng_u64(ptr noundef %44)
  br label %46

46:                                               ; preds = %43
  %47 = load i32, ptr %6, align 4, !tbaa !22
  %48 = add nsw i32 %47, 1
  store i32 %48, ptr %6, align 4, !tbaa !22
  br label %40, !llvm.loop !27

49:                                               ; preds = %40
  call void @llvm.lifetime.end.p0(i64 4, ptr %6) #7
  call void @llvm.lifetime.end.p0(i64 4, ptr %5) #7
  ret void
}

; Function Attrs: nounwind uwtable
define internal i32 @lj_cf_math_randomseed(ptr noundef %0) #0 {
  %2 = alloca ptr, align 8
  %3 = alloca ptr, align 8
  store ptr %0, ptr %2, align 8, !tbaa !4
  call void @llvm.lifetime.start.p0(i64 8, ptr %3) #7
  %4 = load ptr, ptr %2, align 8, !tbaa !4
  %5 = getelementptr inbounds nuw %struct.lua_State, ptr %4, i32 0, i32 7
  %6 = load ptr, ptr %5, align 8, !tbaa !15
  %7 = getelementptr inbounds %union.TValue, ptr %6, i64 -2
  %8 = getelementptr inbounds nuw %struct.GCRef, ptr %7, i32 0, i32 0
  %9 = load i64, ptr %8, align 8, !tbaa !23
  %10 = and i64 %9, 140737488355327
  %11 = inttoptr i64 %10 to ptr
  %12 = getelementptr inbounds nuw %struct.GCfuncC, ptr %11, i32 0, i32 9
  %13 = getelementptr inbounds [1 x %union.TValue], ptr %12, i64 0, i64 0
  %14 = getelementptr inbounds nuw %struct.GCRef, ptr %13, i32 0, i32 0
  %15 = load i64, ptr %14, align 8, !tbaa !23
  %16 = and i64 %15, 140737488355327
  %17 = inttoptr i64 %16 to ptr
  %18 = getelementptr inbounds %struct.GCudata, ptr %17, i64 1
  store ptr %18, ptr %3, align 8, !tbaa !9
  %19 = load ptr, ptr %2, align 8, !tbaa !4
  %20 = getelementptr inbounds nuw %struct.lua_State, ptr %19, i32 0, i32 7
  %21 = load ptr, ptr %20, align 8, !tbaa !15
  %22 = load ptr, ptr %2, align 8, !tbaa !4
  %23 = getelementptr inbounds nuw %struct.lua_State, ptr %22, i32 0, i32 8
  %24 = load ptr, ptr %23, align 8, !tbaa !21
  %25 = icmp ne ptr %21, %24
  br i1 %25, label %26, label %30

26:                                               ; preds = %1
  %27 = load ptr, ptr %3, align 8, !tbaa !9
  %28 = load ptr, ptr %2, align 8, !tbaa !4
  %29 = call double @lj_lib_checknum(ptr noundef %28, i32 noundef 1)
  call void @random_seed(ptr noundef %27, double noundef %29)
  br label %37

30:                                               ; preds = %1
  %31 = load ptr, ptr %3, align 8, !tbaa !9
  %32 = call i32 @lj_prng_seed_secure(ptr noundef %31)
  %33 = icmp ne i32 %32, 0
  br i1 %33, label %36, label %34

34:                                               ; preds = %30
  %35 = load ptr, ptr %2, align 8, !tbaa !4
  call void @lj_err_caller(ptr noundef %35, i32 noundef 1385) #8
  unreachable

36:                                               ; preds = %30
  br label %37

37:                                               ; preds = %36, %26
  call void @llvm.lifetime.end.p0(i64 8, ptr %3) #7
  ret i32 0
}