; Function Attrs: nounwind uwtable
define internal noundef i32 @lj_cf_math_randomseed(ptr noundef %0) #0 {
  %2 = getelementptr inbounds nuw i8, ptr %0, i64 32
  %3 = load ptr, ptr %2, align 8, !tbaa !8
  %4 = getelementptr inbounds i8, ptr %3, i64 -16
  %5 = load i64, ptr %4, align 8, !tbaa !17
  %6 = and i64 %5, 140737488355327
  %7 = inttoptr i64 %6 to ptr
  %8 = getelementptr inbounds nuw i8, ptr %7, i64 48
  %9 = load i64, ptr %8, align 8, !tbaa !17
  %10 = and i64 %9, 140737488355327
  %11 = inttoptr i64 %10 to ptr
  %12 = getelementptr inbounds nuw i8, ptr %11, i64 48
  %13 = getelementptr inbounds nuw i8, ptr %0, i64 40
  %14 = load ptr, ptr %13, align 8, !tbaa !15
  %.not = icmp eq ptr %3, %14
  br i1 %.not, label %29, label %15

15:                                               ; preds = %1
  %16 = tail call double @lj_lib_checknum(ptr noundef nonnull %0, i32 noundef 1) #5
  br label %17

17:                                               ; preds = %17, %15
  %indvars.iv.i = phi i64 [ 0, %15 ], [ %indvars.iv.next.i, %17 ]
  %.020.i = phi double [ %16, %15 ], [ %21, %17 ]
  %.01418.i = phi i32 [ 285804033, %15 ], [ %20, %17 ]
  %18 = and i32 %.01418.i, 255
  %19 = shl nuw i32 1, %18
  %20 = lshr i32 %.01418.i, 8
  %21 = tail call double @llvm.fmuladd.f64(double %.020.i, double 0x400921FB54442D18, double 0x4005BF0A8B145769)
  %22 = bitcast double %21 to i64
  %23 = zext i32 %19 to i64
  %24 = icmp ult i64 %22, %23
  %25 = select i1 %24, i64 %23, i64 0
  %spec.select.i = add nuw nsw i64 %25, %22
  %26 = getelementptr inbounds nuw [4 x i64], ptr %12, i64 0, i64 %indvars.iv.i
  store i64 %spec.select.i, ptr %26, align 8, !tbaa !4
  %indvars.iv.next.i = add nuw nsw i64 %indvars.iv.i, 1
  %exitcond.not.i = icmp eq i64 %indvars.iv.next.i, 4
  br i1 %exitcond.not.i, label %.preheader.i, label %17, !llvm.loop !20

.preheader.i:                                     ; preds = %17, %.preheader.i
  %.121.i = phi i32 [ %28, %.preheader.i ], [ 0, %17 ]
  %27 = tail call i64 @lj_prng_u64(ptr noundef nonnull %12) #5
  %28 = add nuw nsw i32 %.121.i, 1
  %exitcond23.not.i = icmp eq i32 %28, 10
  br i1 %exitcond23.not.i, label %random_seed.exit, label %.preheader.i, !llvm.loop !21

29:                                               ; preds = %1
  %30 = tail call i32 @lj_prng_seed_secure(ptr noundef nonnull %12) #5
  %.not7 = icmp eq i32 %30, 0
  br i1 %.not7, label %31, label %random_seed.exit

31:                                               ; preds = %29
  tail call void @lj_err_caller(ptr noundef nonnull %0, i32 noundef 1385) #6
  unreachable

random_seed.exit:                                 ; preds = %.preheader.i, %29
  ret i32 0
}